; ModuleID = '2/1268.c'
source_filename = "2/1268.c"
target datalayout = "e-m:e-p270:32:32-p271:32:32-p272:64:64-i64:64-f80:128-n8:16:32:64-S128"
target triple = "x86_64-pc-linux-gnu"

@.str = private unnamed_addr constant [3 x i8] c"%d\00", align 1
@.str.1 = private unnamed_addr constant [6 x i8] c"%d %s\00", align 1
@.str.2 = private unnamed_addr constant [7 x i8] c"%c\0A%d\0A\00", align 1
@.str.3 = private unnamed_addr constant [4 x i8] c"%d\0A\00", align 1

; Function Attrs: noinline nounwind uwtable
define dso_local i32 @main() #0 {
  %1 = alloca i32, align 4
  %2 = alloca i32, align 4
  %3 = alloca i32, align 4
  %4 = alloca i32, align 4
  %5 = alloca i32, align 4
  %6 = alloca i32, align 4
  %7 = alloca [1000 x i32], align 16
  %8 = alloca i32, align 4
  %9 = alloca [30 x i32], align 16
  %10 = alloca i32, align 4
  %11 = alloca [1000 x [20 x i8]], align 16
  store i32 0, i32* %1, align 4
  %12 = bitcast [30 x i32]* %9 to i8*
  call void @llvm.memset.p0i8.i64(i8* align 16 %12, i8 0, i64 120, i1 false)
  %13 = call i32 (i8*, ...) @__isoc99_scanf(i8* getelementptr inbounds ([3 x i8], [3 x i8]* @.str, i64 0, i64 0), i32* %2)
  store i32 0, i32* %5, align 4
  br label %14

14:                                               ; preds = %55, %0
  %15 = load i32, i32* %5, align 4
  %16 = load i32, i32* %2, align 4
  %17 = icmp slt i32 %15, %16
  br i1 %17, label %18, label %58

18:                                               ; preds = %14
  %19 = load i32, i32* %5, align 4
  %20 = sext i32 %19 to i64
  %21 = getelementptr inbounds [1000 x i32], [1000 x i32]* %7, i64 0, i64 %20
  %22 = load i32, i32* %5, align 4
  %23 = sext i32 %22 to i64
  %24 = getelementptr inbounds [1000 x [20 x i8]], [1000 x [20 x i8]]* %11, i64 0, i64 %23
  %25 = getelementptr inbounds [20 x i8], [20 x i8]* %24, i64 0, i64 0
  %26 = call i32 (i8*, ...) @__isoc99_scanf(i8* getelementptr inbounds ([6 x i8], [6 x i8]* @.str.1, i64 0, i64 0), i32* %21, i8* %25)
  %27 = load i32, i32* %5, align 4
  %28 = sext i32 %27 to i64
  %29 = getelementptr inbounds [1000 x [20 x i8]], [1000 x [20 x i8]]* %11, i64 0, i64 %28
  %30 = getelementptr inbounds [20 x i8], [20 x i8]* %29, i64 0, i64 0
  %31 = call i64 @strlen(i8* %30) #4
  %32 = trunc i64 %31 to i32
  store i32 %32, i32* %8, align 4
  store i32 0, i32* %6, align 4
  br label %33

33:                                               ; preds = %51, %18
  %34 = load i32, i32* %6, align 4
  %35 = load i32, i32* %8, align 4
  %36 = icmp slt i32 %34, %35
  br i1 %36, label %37, label %54

37:                                               ; preds = %33
  %38 = load i32, i32* %5, align 4
  %39 = sext i32 %38 to i64
  %40 = getelementptr inbounds [1000 x [20 x i8]], [1000 x [20 x i8]]* %11, i64 0, i64 %39
  %41 = load i32, i32* %6, align 4
  %42 = sext i32 %41 to i64
  %43 = getelementptr inbounds [20 x i8], [20 x i8]* %40, i64 0, i64 %42
  %44 = load i8, i8* %43, align 1
  %45 = sext i8 %44 to i32
  %46 = sub nsw i32 %45, 64
  %47 = sext i32 %46 to i64
  %48 = getelementptr inbounds [30 x i32], [30 x i32]* %9, i64 0, i64 %47
  %49 = load i32, i32* %48, align 4
  %50 = add nsw i32 %49, 1
  store i32 %50, i32* %48, align 4
  br label %51

51:                                               ; preds = %37
  %52 = load i32, i32* %6, align 4
  %53 = add nsw i32 %52, 1
  store i32 %53, i32* %6, align 4
  br label %33

54:                                               ; preds = %33
  br label %55

55:                                               ; preds = %54
  %56 = load i32, i32* %5, align 4
  %57 = add nsw i32 %56, 1
  store i32 %57, i32* %5, align 4
  br label %14

58:                                               ; preds = %14
  store i32 1, i32* %5, align 4
  br label %59

59:                                               ; preds = %76, %58
  %60 = load i32, i32* %5, align 4
  %61 = icmp slt i32 %60, 27
  br i1 %61, label %62, label %79

62:                                               ; preds = %59
  %63 = load i32, i32* %5, align 4
  %64 = sext i32 %63 to i64
  %65 = getelementptr inbounds [30 x i32], [30 x i32]* %9, i64 0, i64 %64
  %66 = load i32, i32* %65, align 4
  %67 = load i32, i32* %3, align 4
  %68 = icmp sgt i32 %66, %67
  br i1 %68, label %69, label %75

69:                                               ; preds = %62
  %70 = load i32, i32* %5, align 4
  %71 = sext i32 %70 to i64
  %72 = getelementptr inbounds [30 x i32], [30 x i32]* %9, i64 0, i64 %71
  %73 = load i32, i32* %72, align 4
  store i32 %73, i32* %3, align 4
  %74 = load i32, i32* %5, align 4
  store i32 %74, i32* %4, align 4
  br label %75

75:                                               ; preds = %69, %62
  br label %76

76:                                               ; preds = %75
  %77 = load i32, i32* %5, align 4
  %78 = add nsw i32 %77, 1
  store i32 %78, i32* %5, align 4
  br label %59

79:                                               ; preds = %59
  %80 = load i32, i32* %4, align 4
  %81 = add nsw i32 %80, 64
  %82 = load i32, i32* %4, align 4
  %83 = sext i32 %82 to i64
  %84 = getelementptr inbounds [30 x i32], [30 x i32]* %9, i64 0, i64 %83
  %85 = load i32, i32* %84, align 4
  %86 = call i32 (i8*, ...) @printf(i8* getelementptr inbounds ([7 x i8], [7 x i8]* @.str.2, i64 0, i64 0), i32 %81, i32 %85)
  store i32 0, i32* %5, align 4
  br label %87

87:                                               ; preds = %125, %79
  %88 = load i32, i32* %5, align 4
  %89 = load i32, i32* %2, align 4
  %90 = icmp slt i32 %88, %89
  br i1 %90, label %91, label %128

91:                                               ; preds = %87
  %92 = load i32, i32* %5, align 4
  %93 = sext i32 %92 to i64
  %94 = getelementptr inbounds [1000 x [20 x i8]], [1000 x [20 x i8]]* %11, i64 0, i64 %93
  %95 = getelementptr inbounds [20 x i8], [20 x i8]* %94, i64 0, i64 0
  %96 = call i64 @strlen(i8* %95) #4
  %97 = trunc i64 %96 to i32
  store i32 %97, i32* %8, align 4
  store i32 0, i32* %6, align 4
  br label %98

98:                                               ; preds = %121, %91
  %99 = load i32, i32* %6, align 4
  %100 = load i32, i32* %8, align 4
  %101 = icmp slt i32 %99, %100
  br i1 %101, label %102, label %124

102:                                              ; preds = %98
  %103 = load i32, i32* %5, align 4
  %104 = sext i32 %103 to i64
  %105 = getelementptr inbounds [1000 x [20 x i8]], [1000 x [20 x i8]]* %11, i64 0, i64 %104
  %106 = load i32, i32* %6, align 4
  %107 = sext i32 %106 to i64
  %108 = getelementptr inbounds [20 x i8], [20 x i8]* %105, i64 0, i64 %107
  %109 = load i8, i8* %108, align 1
  %110 = sext i8 %109 to i32
  %111 = load i32, i32* %4, align 4
  %112 = add nsw i32 %111, 64
  %113 = icmp eq i32 %110, %112
  br i1 %113, label %114, label %120

114:                                              ; preds = %102
  %115 = load i32, i32* %5, align 4
  %116 = sext i32 %115 to i64
  %117 = getelementptr inbounds [1000 x i32], [1000 x i32]* %7, i64 0, i64 %116
  %118 = load i32, i32* %117, align 4
  %119 = call i32 (i8*, ...) @printf(i8* getelementptr inbounds ([4 x i8], [4 x i8]* @.str.3, i64 0, i64 0), i32 %118)
  br label %120

120:                                              ; preds = %114, %102
  br label %121

121:                                              ; preds = %120
  %122 = load i32, i32* %6, align 4
  %123 = add nsw i32 %122, 1
  store i32 %123, i32* %6, align 4
  br label %98

124:                                              ; preds = %98
  br label %125

125:                                              ; preds = %124
  %126 = load i32, i32* %5, align 4
  %127 = add nsw i32 %126, 1
  store i32 %127, i32* %5, align 4
  br label %87

128:                                              ; preds = %87
  ret i32 0
}

; Function Attrs: argmemonly nounwind willreturn
declare void @llvm.memset.p0i8.i64(i8* nocapture writeonly, i8, i64, i1 immarg) #1

declare dso_local i32 @__isoc99_scanf(i8*, ...) #2

; Function Attrs: nounwind readonly
declare dso_local i64 @strlen(i8*) #3

declare dso_local i32 @printf(i8*, ...) #2


!llvm.module.flags = !{!0}
!llvm.ident = !{!1}

!0 = !{i32 1, !"wchar_size", i32 4}
!1 = !{!"clang version 10.0.0-4ubuntu1 "}
